; Function Attrs: mustprogress nofree norecurse nosync nounwind willreturn memory(read, inaccessiblemem: none) uwtable
define noundef double @_ZNK8QuantLib23RangeAccrualPricerByBgm18derDriftDerLambdaSEdddd(ptr nocapture noundef nonnull readonly align 8 dereferenceable(224) %this, double noundef %U, double noundef %lambdaS, double noundef %lambdaT, double noundef %correlation) local_unnamed_addr #18 align 2 {
entry:
  %startTime_ = getelementptr inbounds nuw i8, ptr %this, i64 16
  %0 = load double, ptr %startTime_, align 8, !tbaa !115
  %cmp = fcmp ogt double %0, 0.000000e+00
  br i1 %cmp, label %if.then, label %if.end

if.then:                                          ; preds = %entry
  %_M_finish.i.i = getelementptr inbounds nuw i8, ptr %this, i64 96
  %1 = load ptr, ptr %_M_finish.i.i, align 8, !tbaa !3
  %add.ptr.i.i = getelementptr inbounds i8, ptr %1, i64 -8
  %endTime_ = getelementptr inbounds nuw i8, ptr %this, i64 24
  %2 = load double, ptr %endTime_, align 8, !tbaa !116
  %accrualFactor_ = getelementptr inbounds nuw i8, ptr %this, i64 32
  %3 = load double, ptr %accrualFactor_, align 8, !tbaa !113
  %sub = fsub double %U, %0
  %div = fdiv double %sub, %3
  %mul15 = fmul double %lambdaT, %div
  %mul = fmul double %3, %div
  %4 = load double, ptr %add.ptr.i.i, align 8, !tbaa !88
  %mul6 = fmul double %4, %mul
  %5 = tail call double @llvm.fmuladd.f64(double %4, double %3, double 1.000000e+00)
  %div9 = fdiv double %mul6, %5
  %sub2 = fsub double %2, %U
  %div4 = fdiv double %sub2, %3
  %mul10 = fmul double %lambdaT, %div4
  %mul11 = fmul double %correlation, %mul10
  %mul13 = fmul double %div4, 2.000000e+00
  %mul14 = fmul double %lambdaS, %mul13
  %6 = tail call double @llvm.fmuladd.f64(double %div9, double %mul11, double %mul14)
  %7 = tail call double @llvm.fmuladd.f64(double %mul15, double %correlation, double %6)
  br label %if.end

if.end:                                           ; preds = %entry, %if.then
  %result.0 = phi double [ %7, %if.then ], [ 0.000000e+00, %entry ]
  ret double %result.0
}